; Function Attrs: mustprogress nounwind uwtable
define hidden void @_ZN28ShenandoahAdaptiveHeuristics19record_success_fullEv(ptr noundef nonnull align 8 dereferenceable(464) %0) unnamed_addr #0 align 2 {
  tail call void @_ZN20ShenandoahHeuristics19record_success_fullEv(ptr noundef nonnull align 8 dereferenceable(193) %0) #11
  %2 = getelementptr inbounds i8, ptr %0, i64 368
  %3 = load double, ptr %2, align 8
  %4 = fadd double %3, 2.000000e-01
  %5 = fcmp olt double %4, 3.291000e+00
  %6 = select i1 %5, double %4, double 3.291000e+00
  %7 = fcmp ogt double %6, 3.190000e-01
  %8 = select i1 %7, double %6, double 3.190000e-01
  store double %8, ptr %2, align 8
  %9 = load volatile ptr, ptr getelementptr inbounds (i8, ptr @_ZN16LogTagSetMappingILN6LogTag4typeE49ELS1_40ELS1_0ELS1_0ELS1_0ELS1_0EE7_tagsetE, i64 56), align 8
  %.not.i = icmp eq ptr %9, null
  br i1 %.not.i, label %_ZN28ShenandoahAdaptiveHeuristics22adjust_margin_of_errorEd.exit, label %10

10:                                               ; preds = %1
  tail call void (ptr, ...) @_ZN7LogImplILN6LogTag4typeE49ELS1_40ELS1_0ELS1_0ELS1_0ELS1_0EE5writeILN8LogLevel4typeE2EEEvPKcz(ptr noundef nonnull @.str.11, double noundef %8)
  br label %_ZN28ShenandoahAdaptiveHeuristics22adjust_margin_of_errorEd.exit

_ZN28ShenandoahAdaptiveHeuristics22adjust_margin_of_errorEd.exit: ; preds = %1, %10
  %11 = getelementptr inbounds i8, ptr %0, i64 376
  %12 = load double, ptr %11, align 8
  %13 = fadd double %12, -2.000000e-01
  %14 = fcmp olt double %13, 3.291000e+00
  %15 = select i1 %14, double %13, double 3.291000e+00
  %16 = fcmp ogt double %15, 3.190000e-01
  %17 = select i1 %16, double %15, double 3.190000e-01
  store double %17, ptr %11, align 8
  %18 = load volatile ptr, ptr getelementptr inbounds (i8, ptr @_ZN16LogTagSetMappingILN6LogTag4typeE49ELS1_40ELS1_0ELS1_0ELS1_0ELS1_0EE7_tagsetE, i64 56), align 8
  %.not.i1 = icmp eq ptr %18, null
  br i1 %.not.i1, label %_ZN28ShenandoahAdaptiveHeuristics22adjust_spike_thresholdEd.exit, label %19

19:                                               ; preds = %_ZN28ShenandoahAdaptiveHeuristics22adjust_margin_of_errorEd.exit
  tail call void (ptr, ...) @_ZN7LogImplILN6LogTag4typeE49ELS1_40ELS1_0ELS1_0ELS1_0ELS1_0EE5writeILN8LogLevel4typeE2EEEvPKcz(ptr noundef nonnull @.str.12, double noundef %17)
  br label %_ZN28ShenandoahAdaptiveHeuristics22adjust_spike_thresholdEd.exit

_ZN28ShenandoahAdaptiveHeuristics22adjust_spike_thresholdEd.exit: ; preds = %_ZN28ShenandoahAdaptiveHeuristics22adjust_margin_of_errorEd.exit, %19
  ret void
}